target datalayout = "e-m:e-p270:32:32-p271:32:32-p272:64:64-i64:64-i128:128-f80:128-n8:16:32:64-S128"
target triple = "x86_64-pc-linux-gnu"

%struct.SimpleStringList = type { ptr, ptr }
%struct.PQExpBufferData = type { ptr, i64, i64 }
%struct.SimpleStringListCell = type { ptr, i8, [0 x i8] }

@.str.282 = private unnamed_addr constant [46 x i8] c"SELECT datname FROM pg_catalog.pg_database n\0A\00", align 1
@.str.283 = private unnamed_addr constant [8 x i8] c"datname\00", align 1
@.str.284 = private unnamed_addr constant [52 x i8] c"improper qualified name (too many dotted names): %s\00", align 1

; Function Attrs: nounwind uwtable
define internal void @expand_dbname_patterns(ptr noundef %0, ptr noundef %1, ptr noundef %2) #0 {
  %4 = alloca ptr, align 8
  %5 = alloca ptr, align 8
  %6 = alloca ptr, align 8
  %7 = alloca ptr, align 8
  %8 = alloca ptr, align 8
  %9 = alloca i32, align 4
  %10 = alloca ptr, align 8
  %11 = alloca i32, align 4
  %12 = alloca i32, align 4
  store ptr %0, ptr %4, align 8
  store ptr %1, ptr %5, align 8
  store ptr %2, ptr %6, align 8
  call void @llvm.lifetime.start.p0(i64 8, ptr %7) #11
  call void @llvm.lifetime.start.p0(i64 8, ptr %8) #11
  %13 = load ptr, ptr %5, align 8
  %14 = getelementptr inbounds nuw %struct.SimpleStringList, ptr %13, i32 0, i32 0
  %15 = load ptr, ptr %14, align 8
  %16 = icmp eq ptr %15, null
  br i1 %16, label %17, label %18

17:                                               ; preds = %3
  store i32 1, ptr %9, align 4
  br label %71

18:                                               ; preds = %3
  %19 = call ptr @createPQExpBuffer()
  store ptr %19, ptr %7, align 8
  call void @llvm.lifetime.start.p0(i64 8, ptr %10) #11
  %20 = load ptr, ptr %5, align 8
  %21 = getelementptr inbounds nuw %struct.SimpleStringList, ptr %20, i32 0, i32 0
  %22 = load ptr, ptr %21, align 8
  store ptr %22, ptr %10, align 8
  br label %23

23:                                               ; preds = %65, %18
  %24 = load ptr, ptr %10, align 8
  %25 = icmp ne ptr %24, null
  br i1 %25, label %27, label %26

26:                                               ; preds = %23
  store i32 2, ptr %9, align 4
  call void @llvm.lifetime.end.p0(i64 8, ptr %10) #11
  br label %69

27:                                               ; preds = %23
  call void @llvm.lifetime.start.p0(i64 4, ptr %11) #11
  %28 = load ptr, ptr %7, align 8
  call void @appendPQExpBufferStr(ptr noundef %28, ptr noundef @.str.282)
  %29 = load ptr, ptr %4, align 8
  %30 = load ptr, ptr %7, align 8
  %31 = load ptr, ptr %10, align 8
  %32 = getelementptr inbounds nuw %struct.SimpleStringListCell, ptr %31, i32 0, i32 2
  %33 = getelementptr inbounds [0 x i8], ptr %32, i64 0, i64 0
  %34 = call zeroext i1 @processSQLNamePattern(ptr noundef %29, ptr noundef %30, ptr noundef %33, i1 noundef zeroext false, i1 noundef zeroext false, ptr noundef null, ptr noundef @.str.283, ptr noundef null, ptr noundef null, ptr noundef null, ptr noundef %11)
  %35 = load i32, ptr %11, align 4
  %36 = icmp sgt i32 %35, 0
  br i1 %36, label %37, label %42

37:                                               ; preds = %27
  %38 = load ptr, ptr %10, align 8
  %39 = getelementptr inbounds nuw %struct.SimpleStringListCell, ptr %38, i32 0, i32 2
  %40 = getelementptr inbounds [0 x i8], ptr %39, i64 0, i64 0
  call void (i32, i32, ptr, ...) @pg_log_generic(i32 noundef 4, i32 noundef 0, ptr noundef @.str.284, ptr noundef %40)
  %41 = load ptr, ptr %4, align 8
  call void @PQfinish(ptr noundef %41)
  call void @exit(i32 noundef 1) #13
  unreachable

42:                                               ; preds = %27
  %43 = load ptr, ptr %4, align 8
  %44 = load ptr, ptr %7, align 8
  %45 = getelementptr inbounds nuw %struct.PQExpBufferData, ptr %44, i32 0, i32 0
  %46 = load ptr, ptr %45, align 8
  %47 = call ptr @executeQuery(ptr noundef %43, ptr noundef %46)
  store ptr %47, ptr %8, align 8
  call void @llvm.lifetime.start.p0(i64 4, ptr %12) #11
  store i32 0, ptr %12, align 4
  br label %48

48:                                               ; preds = %59, %42
  %49 = load i32, ptr %12, align 4
  %50 = load ptr, ptr %8, align 8
  %51 = call i32 @PQntuples(ptr noundef %50)
  %52 = icmp slt i32 %49, %51
  br i1 %52, label %54, label %53

53:                                               ; preds = %48
  store i32 5, ptr %9, align 4
  call void @llvm.lifetime.end.p0(i64 4, ptr %12) #11
  br label %62

54:                                               ; preds = %48
  %55 = load ptr, ptr %6, align 8
  %56 = load ptr, ptr %8, align 8
  %57 = load i32, ptr %12, align 4
  %58 = call ptr @PQgetvalue(ptr noundef %56, i32 noundef %57, i32 noundef 0)
  call void @simple_string_list_append(ptr noundef %55, ptr noundef %58)
  br label %59

59:                                               ; preds = %54
  %60 = load i32, ptr %12, align 4
  %61 = add i32 %60, 1
  store i32 %61, ptr %12, align 4
  br label %48, !llvm.loop !12

62:                                               ; preds = %53
  %63 = load ptr, ptr %8, align 8
  call void @PQclear(ptr noundef %63)
  %64 = load ptr, ptr %7, align 8
  call void @resetPQExpBuffer(ptr noundef %64)
  call void @llvm.lifetime.end.p0(i64 4, ptr %11) #11
  br label %65

65:                                               ; preds = %62
  %66 = load ptr, ptr %10, align 8
  %67 = getelementptr inbounds nuw %struct.SimpleStringListCell, ptr %66, i32 0, i32 0
  %68 = load ptr, ptr %67, align 8
  store ptr %68, ptr %10, align 8
  br label %23, !llvm.loop !13

69:                                               ; preds = %26
  %70 = load ptr, ptr %7, align 8
  call void @destroyPQExpBuffer(ptr noundef %70)
  store i32 0, ptr %9, align 4
  br label %71

71:                                               ; preds = %69, %17
  call void @llvm.lifetime.end.p0(i64 8, ptr %8) #11
  call void @llvm.lifetime.end.p0(i64 8, ptr %7) #11
  %72 = load i32, ptr %9, align 4
  switch i32 %72, label %74 [
    i32 0, label %73
    i32 1, label %73
  ]

73:                                               ; preds = %71, %71
  ret void

74:                                               ; preds = %71
  unreachable
}