; Function Attrs: nounwind uwtable
define internal fastcc void @expand_dbname_patterns(ptr noundef nonnull %0) unnamed_addr #4 {
  %2 = alloca i32, align 4
  %3 = load ptr, ptr @database_exclude_patterns, align 8
  %4 = icmp eq ptr %3, null
  br i1 %4, label %21, label %5

5:                                                ; preds = %1
  %6 = tail call ptr @createPQExpBuffer() #15
  %.0202 = load ptr, ptr @database_exclude_patterns, align 8
  %.not3 = icmp eq ptr %.0202, null
  br i1 %.not3, label %._crit_edge7, label %.lr.ph6

._crit_edge7:                                     ; preds = %._crit_edge, %5
  call void @destroyPQExpBuffer(ptr noundef %6) #15
  br label %21

.lr.ph6:                                          ; preds = %5, %._crit_edge
  %.0204 = phi ptr [ %.020, %._crit_edge ], [ %.0202, %5 ]
  call void @llvm.lifetime.start.p0(i64 4, ptr nonnull %2) #15
  call void @appendPQExpBufferStr(ptr noundef %6, ptr noundef nonnull @.str.282) #15
  %7 = getelementptr inbounds nuw i8, ptr %.0204, i64 9
  %8 = call zeroext i1 @processSQLNamePattern(ptr noundef nonnull %0, ptr noundef %6, ptr noundef nonnull %7, i1 noundef zeroext false, i1 noundef zeroext false, ptr noundef null, ptr noundef nonnull @.str.283, ptr noundef null, ptr noundef null, ptr noundef null, ptr noundef nonnull %2) #15
  %9 = load i32, ptr %2, align 4
  %10 = icmp sgt i32 %9, 0
  br i1 %10, label %11, label %12

11:                                               ; preds = %.lr.ph6
  call void (i32, i32, ptr, ...) @pg_log_generic(i32 noundef 4, i32 noundef 0, ptr noundef nonnull @.str.284, ptr noundef nonnull %7) #15
  call void @PQfinish(ptr noundef nonnull %0) #15
  call void @exit(i32 noundef 1) #18
  unreachable

12:                                               ; preds = %.lr.ph6
  %13 = load ptr, ptr %6, align 8
  %14 = call fastcc ptr @executeQuery(ptr noundef %0, ptr noundef %13)
  %15 = call i32 @PQntuples(ptr noundef nonnull %14) #15
  %16 = icmp sgt i32 %15, 0
  br i1 %16, label %.lr.ph, label %._crit_edge

._crit_edge:                                      ; preds = %.lr.ph, %12
  call void @PQclear(ptr noundef nonnull %14) #15
  call void @resetPQExpBuffer(ptr noundef nonnull %6) #15
  call void @llvm.lifetime.end.p0(i64 4, ptr nonnull %2) #15
  %.020 = load ptr, ptr %.0204, align 8
  %.not = icmp eq ptr %.020, null
  br i1 %.not, label %._crit_edge7, label %.lr.ph6, !llvm.loop !10

.lr.ph:                                           ; preds = %12, %.lr.ph
  %.01 = phi i32 [ %18, %.lr.ph ], [ 0, %12 ]
  %17 = call ptr @PQgetvalue(ptr noundef nonnull %14, i32 noundef %.01, i32 noundef 0) #15
  call void @simple_string_list_append(ptr noundef nonnull @database_exclude_names, ptr noundef %17) #15
  %18 = add nuw nsw i32 %.01, 1
  %19 = call i32 @PQntuples(ptr noundef nonnull %14) #15
  %20 = icmp slt i32 %18, %19
  br i1 %20, label %.lr.ph, label %._crit_edge, !llvm.loop !11

21:                                               ; preds = %1, %._crit_edge7
  ret void
}